; Function Attrs: mustprogress uwtable
define void @_ZN20colvarbias_restraintC2EPKc(ptr noundef nonnull align 8 dereferenceable(8) %0, ptr nocapture noundef readonly %1, ptr nocapture noundef readnone %2) unnamed_addr #4 align 2 {
  %4 = load ptr, ptr %1, align 8
  store ptr %4, ptr %0, align 8
  %5 = getelementptr inbounds i8, ptr %1, i64 8
  %6 = load ptr, ptr %5, align 8
  %7 = getelementptr i8, ptr %4, i64 -24
  %8 = load i64, ptr %7, align 8
  %9 = getelementptr inbounds i8, ptr %0, i64 %8
  store ptr %6, ptr %9, align 8
  %10 = getelementptr inbounds i8, ptr %1, i64 16
  %11 = load ptr, ptr %10, align 8
  %12 = load ptr, ptr %0, align 8
  %13 = getelementptr i8, ptr %12, i64 -32
  %14 = load i64, ptr %13, align 8
  %15 = getelementptr inbounds i8, ptr %0, i64 %14
  store ptr %11, ptr %15, align 8
  %16 = getelementptr inbounds i8, ptr %1, i64 24
  %17 = load ptr, ptr %16, align 8
  %18 = load ptr, ptr %0, align 8
  %19 = getelementptr i8, ptr %18, i64 -40
  %20 = load i64, ptr %19, align 8
  %21 = getelementptr inbounds i8, ptr %0, i64 %20
  store ptr %17, ptr %21, align 8
  %22 = getelementptr inbounds i8, ptr %1, i64 32
  %23 = load ptr, ptr %22, align 8
  %24 = load ptr, ptr %0, align 8
  %25 = getelementptr i8, ptr %24, i64 -48
  %26 = load i64, ptr %25, align 8
  %27 = getelementptr inbounds i8, ptr %0, i64 %26
  store ptr %23, ptr %27, align 8
  %28 = load ptr, ptr %0, align 8
  %29 = getelementptr i8, ptr %28, i64 -24
  %30 = load i64, ptr %29, align 8
  %31 = getelementptr inbounds i8, ptr %0, i64 %30
  %32 = getelementptr inbounds i8, ptr %31, i64 72
  %33 = tail call noundef nonnull align 8 dereferenceable(32) ptr @_ZNSt7__cxx1112basic_stringIcSt11char_traitsIcESaIcEEaSEPKc(ptr noundef nonnull align 8 dereferenceable(32) %32, ptr noundef nonnull @.str)
  ret void
}